target datalayout = "e-m:e-p270:32:32-p271:32:32-p272:64:64-i64:64-i128:128-f80:128-n8:16:32:64-S128"
target triple = "x86_64-pc-linux-gnu"

@csvlogFile = internal global ptr null, align 8
@jsonlogFile = internal global ptr null, align 8
@syslogFile = internal global ptr null, align 8
@.str.13 = private unnamed_addr constant [33 x i8] c"could not write to log file: %m\0A\00", align 1

; Function Attrs: nounwind uwtable
define dso_local void @write_syslogger_file(ptr noundef %0, i32 noundef %1, i32 noundef %2) #4 {
  %4 = alloca ptr, align 8
  %5 = alloca i32, align 4
  %6 = alloca i32, align 4
  %7 = alloca i32, align 4
  %8 = alloca ptr, align 8
  store ptr %0, ptr %4, align 8
  store i32 %1, ptr %5, align 4
  store i32 %2, ptr %6, align 4
  call void @llvm.lifetime.start.p0(i64 4, ptr %7) #12
  call void @llvm.lifetime.start.p0(i64 8, ptr %8) #12
  %9 = load i32, ptr %6, align 4
  %10 = and i32 %9, 8
  %11 = icmp ne i32 %10, 0
  br i1 %11, label %12, label %17

12:                                               ; preds = %3
  %13 = load ptr, ptr @csvlogFile, align 8
  %14 = icmp ne ptr %13, null
  br i1 %14, label %15, label %17

15:                                               ; preds = %12
  %16 = load ptr, ptr @csvlogFile, align 8
  store ptr %16, ptr %8, align 8
  br label %29

17:                                               ; preds = %12, %3
  %18 = load i32, ptr %6, align 4
  %19 = and i32 %18, 16
  %20 = icmp ne i32 %19, 0
  br i1 %20, label %21, label %26

21:                                               ; preds = %17
  %22 = load ptr, ptr @jsonlogFile, align 8
  %23 = icmp ne ptr %22, null
  br i1 %23, label %24, label %26

24:                                               ; preds = %21
  %25 = load ptr, ptr @jsonlogFile, align 8
  store ptr %25, ptr %8, align 8
  br label %28

26:                                               ; preds = %21, %17
  %27 = load ptr, ptr @syslogFile, align 8
  store ptr %27, ptr %8, align 8
  br label %28

28:                                               ; preds = %26, %24
  br label %29

29:                                               ; preds = %28, %15
  %30 = load ptr, ptr %4, align 8
  %31 = load i32, ptr %5, align 4
  %32 = sext i32 %31 to i64
  %33 = load ptr, ptr %8, align 8
  %34 = call i64 @fwrite(ptr noundef %30, i64 noundef 1, i64 noundef %32, ptr noundef %33)
  %35 = trunc i64 %34 to i32
  store i32 %35, ptr %7, align 4
  %36 = load i32, ptr %7, align 4
  %37 = load i32, ptr %5, align 4
  %38 = icmp ne i32 %36, %37
  br i1 %38, label %39, label %40

39:                                               ; preds = %29
  call void (ptr, ...) @write_stderr(ptr noundef @.str.13)
  br label %40

40:                                               ; preds = %39, %29
  call void @llvm.lifetime.end.p0(i64 8, ptr %8) #12
  call void @llvm.lifetime.end.p0(i64 4, ptr %7) #12
  ret void
}