; Function Attrs: nounwind uwtable
define dso_local void @write_syslogger_file(ptr noundef captures(none) %0, i32 noundef %1, i32 noundef %2) local_unnamed_addr #5 {
  %4 = and i32 %2, 8
  %5 = icmp ne i32 %4, 0
  %6 = load ptr, ptr @csvlogFile, align 8
  %7 = icmp ne ptr %6, null
  %or.cond = select i1 %5, i1 %7, i1 false
  br i1 %or.cond, label %14, label %8

8:                                                ; preds = %3
  %9 = and i32 %2, 16
  %10 = icmp ne i32 %9, 0
  %11 = load ptr, ptr @jsonlogFile, align 8
  %12 = icmp ne ptr %11, null
  %or.cond3 = select i1 %10, i1 %12, i1 false
  %13 = load ptr, ptr @syslogFile, align 8
  %spec.select = select i1 %or.cond3, ptr %11, ptr %13
  br label %14

14:                                               ; preds = %8, %3
  %.0 = phi ptr [ %6, %3 ], [ %spec.select, %8 ]
  %15 = sext i32 %1 to i64
  %16 = tail call i64 @fwrite(ptr noundef %0, i64 noundef 1, i64 noundef %15, ptr noundef %.0)
  %17 = trunc i64 %16 to i32
  %.not = icmp eq i32 %1, %17
  br i1 %.not, label %19, label %18

18:                                               ; preds = %14
  tail call void (ptr, ...) @write_stderr(ptr noundef nonnull @.str.13) #15
  br label %19

19:                                               ; preds = %18, %14
  ret void
}